target datalayout = "e-m:e-p270:32:32-p271:32:32-p272:64:64-i64:64-i128:128-f80:128-n8:16:32:64-S128"
target triple = "x86_64-pc-linux-gnu"

%struct._DwaCompressor = type { ptr, ptr, i32, i32, [2 x i32], [2 x i32], i32, i32, ptr, ptr, ptr, ptr, i64, ptr, i64, ptr, i64, ptr, i64, [3 x ptr], [3 x i64], ptr, ptr, i32, float }
%struct._exr_encode_pipeline = type { i64, ptr, i16, i16, i32, ptr, %struct.exr_chunk_info_t, ptr, ptr, i64, i64, ptr, i64, ptr, i64, i64, ptr, i64, i64, ptr, i64, ptr, i64, ptr, ptr, ptr, ptr, ptr, ptr, [5 x %struct.exr_coding_channel_info_t] }
%struct.exr_chunk_info_t = type { i32, i32, i32, i32, i32, i8, i8, i8, i8, i64, i64, i64, i64, i64 }
%struct.exr_coding_channel_info_t = type { ptr, i32, i32, i32, i32, i8, i8, i16, i16, i16, i32, i32, %union.anon }
%union.anon = type { ptr }

; Function Attrs: nounwind uwtable
define hidden i32 @internal_exr_apply_dwaa(ptr noundef %0) #0 {
  %2 = alloca ptr, align 8
  %3 = alloca i32, align 4
  %4 = alloca %struct._DwaCompressor, align 8
  %5 = alloca i32, align 4
  %6 = alloca i32, align 4
  store ptr %0, ptr %2, align 8, !tbaa !3
  call void @llvm.lifetime.start.p0(i64 4, ptr %3) #14
  call void @llvm.lifetime.start.p0(i64 208, ptr %4) #14
  %7 = load ptr, ptr %2, align 8, !tbaa !3
  %8 = load ptr, ptr %2, align 8, !tbaa !3
  %9 = getelementptr inbounds nuw %struct._exr_encode_pipeline, ptr %8, i32 0, i32 19
  %10 = load ptr, ptr %2, align 8, !tbaa !3
  %11 = getelementptr inbounds nuw %struct._exr_encode_pipeline, ptr %10, i32 0, i32 20
  %12 = call i64 @internal_exr_huf_compress_spare_bytes()
  %13 = call i32 @internal_encode_alloc_buffer(ptr noundef %7, i32 noundef 3, ptr noundef %9, ptr noundef %11, i64 noundef %12)
  store i32 %13, ptr %3, align 4, !tbaa !8
  %14 = load i32, ptr %3, align 4, !tbaa !8
  %15 = icmp eq i32 %14, 0
  br i1 %15, label %16, label %37

16:                                               ; preds = %1
  call void @llvm.lifetime.start.p0(i64 4, ptr %5) #14
  %17 = load ptr, ptr %2, align 8, !tbaa !3
  %18 = getelementptr inbounds nuw %struct._exr_encode_pipeline, ptr %17, i32 0, i32 6
  %19 = getelementptr inbounds nuw %struct.exr_chunk_info_t, ptr %18, i32 0, i32 7
  %20 = load i8, ptr %19, align 2, !tbaa !10
  %21 = zext i8 %20 to i32
  store i32 %21, ptr %5, align 4, !tbaa !8
  call void @llvm.lifetime.start.p0(i64 4, ptr %6) #14
  store i32 0, ptr %6, align 4, !tbaa !8
  %22 = load i32, ptr %5, align 4, !tbaa !8
  %23 = icmp eq i32 %22, 1
  br i1 %23, label %27, label %24

24:                                               ; preds = %16
  %25 = load i32, ptr %5, align 4, !tbaa !8
  %26 = icmp eq i32 %25, 3
  br i1 %26, label %27, label %28

27:                                               ; preds = %24, %16
  store i32 1, ptr %6, align 4, !tbaa !8
  br label %28

28:                                               ; preds = %27, %24
  %29 = load i32, ptr %6, align 4, !tbaa !8
  %30 = load ptr, ptr %2, align 8, !tbaa !3
  %31 = call i32 @DwaCompressor_construct(ptr noundef %4, i32 noundef %29, ptr noundef %30, ptr noundef null)
  store i32 %31, ptr %3, align 4, !tbaa !8
  %32 = load i32, ptr %3, align 4, !tbaa !8
  %33 = icmp eq i32 %32, 0
  br i1 %33, label %34, label %36

34:                                               ; preds = %28
  %35 = call i32 @DwaCompressor_compress(ptr noundef %4)
  store i32 %35, ptr %3, align 4, !tbaa !8
  br label %36

36:                                               ; preds = %34, %28
  call void @DwaCompressor_destroy(ptr noundef %4)
  call void @llvm.lifetime.end.p0(i64 4, ptr %6) #14
  call void @llvm.lifetime.end.p0(i64 4, ptr %5) #14
  br label %37

37:                                               ; preds = %36, %1
  %38 = load i32, ptr %3, align 4, !tbaa !8
  call void @llvm.lifetime.end.p0(i64 208, ptr %4) #14
  call void @llvm.lifetime.end.p0(i64 4, ptr %3) #14
  ret i32 %38
}